target datalayout = "e-m:e-p270:32:32-p271:32:32-p272:64:64-i64:64-i128:128-f80:128-n8:16:32:64-S128"
target triple = "x86_64-pc-linux-gnu"

%struct.PlannerInfo = type { i32, ptr, ptr, i32, ptr, ptr, ptr, ptr, i32, ptr, ptr, ptr, ptr, ptr, ptr, ptr, ptr, i32, ptr, ptr, ptr, ptr, ptr, i8, ptr, ptr, ptr, ptr, ptr, i32, ptr, ptr, ptr, ptr, ptr, ptr, ptr, i32, ptr, ptr, ptr, i32, ptr, ptr, ptr, ptr, ptr, ptr, [8 x ptr], [8 x ptr], ptr, ptr, ptr, ptr, ptr, ptr, ptr, double, double, double, i32, i8, i8, i8, i8, i8, i8, i8, i32, ptr, ptr, i32, i8, i8, i32, ptr, ptr, ptr, ptr, ptr, ptr, i8, ptr }
%struct.Query = type { i32, i32, i32, i64, i8, ptr, i32, i8, i8, i8, i8, i8, i8, i8, i8, i8, i8, i8, ptr, ptr, ptr, ptr, ptr, i32, ptr, ptr, i32, ptr, ptr, ptr, ptr, ptr, i8, ptr, ptr, ptr, ptr, ptr, ptr, ptr, i32, ptr, ptr, ptr, ptr, i32, i32 }
%struct.Node = type { i32 }
%struct.FromExpr = type { i32, ptr, ptr }
%union.ListCell = type { ptr }
%struct.MinMaxAggInfo = type { i32, i32, i32, ptr, ptr, ptr, double, ptr }
%struct.Expr = type { i32 }
%struct.NullTest = type { %struct.Expr, ptr, i32, i8, i32 }
%struct.SortGroupClause = type { i32, i32, i32, i32, i8, i8, i8 }
%struct.RelOptInfo = type { i32, i32, ptr, double, i8, i8, i8, ptr, ptr, ptr, ptr, ptr, ptr, ptr, ptr, ptr, ptr, i32, i32, i32, i16, i16, ptr, ptr, ptr, ptr, ptr, ptr, ptr, ptr, i32, double, double, ptr, ptr, ptr, i32, i32, i32, i32, i8, ptr, ptr, ptr, ptr, ptr, %struct.QualCost, i32, ptr, i8, i8, ptr, ptr, ptr, ptr, i32, ptr, i8, ptr, ptr, ptr, ptr, ptr, ptr }
%struct.QualCost = type { double, double }
%struct.Path = type { i32, i32, ptr, ptr, ptr, i8, i8, i32, double, i32, double, double, ptr }

@.str.2 = private unnamed_addr constant [11 x i8] c"agg_target\00", align 1

; Function Attrs: inlinehint nounwind uwtable
define internal i64 @Int64GetDatum(i64 noundef %0) #2 {
  %2 = alloca i64, align 8
  store i64 %0, ptr %2, align 8
  %3 = load i64, ptr %2, align 8
  ret i64 %3
}

; Function Attrs: inlinehint nounwind uwtable
define internal ptr @newNode(i64 noundef %0, i32 noundef %1) #2 {
  %3 = alloca i64, align 8
  %4 = alloca i32, align 4
  %5 = alloca ptr, align 8
  store i64 %0, ptr %3, align 8
  store i32 %1, ptr %4, align 4
  call void @llvm.lifetime.start.p0(i64 8, ptr %5) #8
  %6 = load i64, ptr %3, align 8
  %7 = call ptr @palloc0(i64 noundef %6)
  store ptr %7, ptr %5, align 8
  %8 = load i32, ptr %4, align 4
  %9 = load ptr, ptr %5, align 8
  %10 = getelementptr inbounds nuw %struct.Node, ptr %9, i32 0, i32 0
  store i32 %8, ptr %10, align 4
  %11 = load ptr, ptr %5, align 8
  call void @llvm.lifetime.end.p0(i64 8, ptr %5) #8
  ret ptr %11
}

; Function Attrs: nounwind uwtable
define internal zeroext i1 @build_minmax_path(ptr noundef %0, ptr noundef %1, i32 noundef %2, i32 noundef %3, i1 noundef zeroext %4, i1 noundef zeroext %5) #0 {
  %7 = alloca i1, align 1
  %8 = alloca ptr, align 8
  %9 = alloca ptr, align 8
  %10 = alloca i32, align 4
  %11 = alloca i32, align 4
  %12 = alloca i8, align 1
  %13 = alloca i8, align 1
  %14 = alloca ptr, align 8
  %15 = alloca ptr, align 8
  %16 = alloca ptr, align 8
  %17 = alloca ptr, align 8
  %18 = alloca ptr, align 8
  %19 = alloca ptr, align 8
  %20 = alloca ptr, align 8
  %21 = alloca ptr, align 8
  %22 = alloca double, align 8
  %23 = alloca double, align 8
  %24 = alloca %union.ListCell, align 8
  %25 = alloca %union.ListCell, align 8
  %26 = alloca i32, align 4
  store ptr %0, ptr %8, align 8
  store ptr %1, ptr %9, align 8
  store i32 %2, ptr %10, align 4
  store i32 %3, ptr %11, align 4
  %27 = zext i1 %4 to i8
  store i8 %27, ptr %12, align 1
  %28 = zext i1 %5 to i8
  store i8 %28, ptr %13, align 1
  call void @llvm.lifetime.start.p0(i64 8, ptr %14) #8
  call void @llvm.lifetime.start.p0(i64 8, ptr %15) #8
  call void @llvm.lifetime.start.p0(i64 8, ptr %16) #8
  call void @llvm.lifetime.start.p0(i64 8, ptr %17) #8
  call void @llvm.lifetime.start.p0(i64 8, ptr %18) #8
  call void @llvm.lifetime.start.p0(i64 8, ptr %19) #8
  call void @llvm.lifetime.start.p0(i64 8, ptr %20) #8
  call void @llvm.lifetime.start.p0(i64 8, ptr %21) #8
  call void @llvm.lifetime.start.p0(i64 8, ptr %22) #8
  call void @llvm.lifetime.start.p0(i64 8, ptr %23) #8
  %29 = call ptr @palloc(i64 noundef 704)
  store ptr %29, ptr %14, align 8
  %30 = load ptr, ptr %14, align 8
  %31 = load ptr, ptr %8, align 8
  call void @llvm.memcpy.p0.p0.i64(ptr align 8 %30, ptr align 8 %31, i64 704, i1 false)
  %32 = load ptr, ptr %14, align 8
  %33 = getelementptr inbounds nuw %struct.PlannerInfo, ptr %32, i32 0, i32 3
  %34 = load i32, ptr %33, align 8
  %35 = add i32 %34, 1
  store i32 %35, ptr %33, align 8
  %36 = load ptr, ptr %8, align 8
  %37 = load ptr, ptr %14, align 8
  %38 = getelementptr inbounds nuw %struct.PlannerInfo, ptr %37, i32 0, i32 4
  store ptr %36, ptr %38, align 8
  %39 = load ptr, ptr %14, align 8
  %40 = getelementptr inbounds nuw %struct.PlannerInfo, ptr %39, i32 0, i32 5
  store ptr null, ptr %40, align 8
  %41 = load ptr, ptr %14, align 8
  %42 = getelementptr inbounds nuw %struct.PlannerInfo, ptr %41, i32 0, i32 6
  store ptr null, ptr %42, align 8
  %43 = load ptr, ptr %14, align 8
  %44 = getelementptr inbounds nuw %struct.PlannerInfo, ptr %43, i32 0, i32 18
  store ptr null, ptr %44, align 8
  %45 = load ptr, ptr %14, align 8
  %46 = getelementptr inbounds nuw %struct.PlannerInfo, ptr %45, i32 0, i32 69
  store ptr null, ptr %46, align 8
  %47 = load ptr, ptr %14, align 8
  %48 = getelementptr inbounds nuw %struct.PlannerInfo, ptr %47, i32 0, i32 70
  store ptr null, ptr %48, align 8
  %49 = load ptr, ptr %8, align 8
  %50 = getelementptr inbounds nuw %struct.PlannerInfo, ptr %49, i32 0, i32 1
  %51 = load ptr, ptr %50, align 8
  %52 = call ptr @copyObjectImpl(ptr noundef %51)
  store ptr %52, ptr %15, align 8
  %53 = load ptr, ptr %14, align 8
  %54 = getelementptr inbounds nuw %struct.PlannerInfo, ptr %53, i32 0, i32 1
  store ptr %52, ptr %54, align 8
  %55 = load ptr, ptr %15, align 8
  call void @IncrementVarSublevelsUp(ptr noundef %55, i32 noundef 1, i32 noundef 1)
  %56 = load ptr, ptr %8, align 8
  %57 = getelementptr inbounds nuw %struct.PlannerInfo, ptr %56, i32 0, i32 32
  %58 = load ptr, ptr %57, align 8
  %59 = call ptr @copyObjectImpl(ptr noundef %58)
  %60 = load ptr, ptr %14, align 8
  %61 = getelementptr inbounds nuw %struct.PlannerInfo, ptr %60, i32 0, i32 32
  store ptr %59, ptr %61, align 8
  %62 = load ptr, ptr %14, align 8
  %63 = getelementptr inbounds nuw %struct.PlannerInfo, ptr %62, i32 0, i32 32
  %64 = load ptr, ptr %63, align 8
  call void @IncrementVarSublevelsUp(ptr noundef %64, i32 noundef 1, i32 noundef 1)
  %65 = load ptr, ptr %9, align 8
  %66 = getelementptr inbounds nuw %struct.MinMaxAggInfo, ptr %65, i32 0, i32 3
  %67 = load ptr, ptr %66, align 8
  %68 = call ptr @copyObjectImpl(ptr noundef %67)
  %69 = call ptr @pstrdup(ptr noundef @.str.2)
  %70 = call ptr @makeTargetEntry(ptr noundef %68, i16 noundef signext 1, ptr noundef %69, i1 noundef zeroext false)
  store ptr %70, ptr %16, align 8
  %71 = load ptr, ptr %16, align 8
  store ptr %71, ptr %24, align 8
  %72 = getelementptr inbounds nuw %union.ListCell, ptr %24, i32 0, i32 0
  %73 = load ptr, ptr %72, align 8
  %74 = call ptr @list_make1_impl(i32 noundef 1, ptr %73)
  store ptr %74, ptr %17, align 8
  %75 = load ptr, ptr %17, align 8
  %76 = load ptr, ptr %15, align 8
  %77 = getelementptr inbounds nuw %struct.Query, ptr %76, i32 0, i32 25
  store ptr %75, ptr %77, align 8
  %78 = load ptr, ptr %14, align 8
  %79 = getelementptr inbounds nuw %struct.PlannerInfo, ptr %78, i32 0, i32 52
  store ptr %75, ptr %79, align 8
  %80 = load ptr, ptr %15, align 8
  %81 = getelementptr inbounds nuw %struct.Query, ptr %80, i32 0, i32 34
  store ptr null, ptr %81, align 8
  %82 = load ptr, ptr %14, align 8
  %83 = getelementptr inbounds nuw %struct.PlannerInfo, ptr %82, i32 0, i32 63
  store i8 0, ptr %83, align 2
  %84 = load ptr, ptr %15, align 8
  %85 = getelementptr inbounds nuw %struct.Query, ptr %84, i32 0, i32 36
  store ptr null, ptr %85, align 8
  %86 = load ptr, ptr %15, align 8
  %87 = getelementptr inbounds nuw %struct.Query, ptr %86, i32 0, i32 11
  store i8 0, ptr %87, align 8
  %88 = load ptr, ptr %15, align 8
  %89 = getelementptr inbounds nuw %struct.Query, ptr %88, i32 0, i32 7
  store i8 0, ptr %89, align 4
  %90 = call ptr @newNode(i64 noundef 32, i32 noundef 52)
  store ptr %90, ptr %18, align 8
  %91 = load ptr, ptr %18, align 8
  %92 = getelementptr inbounds nuw %struct.NullTest, ptr %91, i32 0, i32 2
  store i32 1, ptr %92, align 8
  %93 = load ptr, ptr %9, align 8
  %94 = getelementptr inbounds nuw %struct.MinMaxAggInfo, ptr %93, i32 0, i32 3
  %95 = load ptr, ptr %94, align 8
  %96 = call ptr @copyObjectImpl(ptr noundef %95)
  %97 = load ptr, ptr %18, align 8
  %98 = getelementptr inbounds nuw %struct.NullTest, ptr %97, i32 0, i32 1
  store ptr %96, ptr %98, align 8
  %99 = load ptr, ptr %18, align 8
  %100 = getelementptr inbounds nuw %struct.NullTest, ptr %99, i32 0, i32 3
  store i8 0, ptr %100, align 4
  %101 = load ptr, ptr %18, align 8
  %102 = getelementptr inbounds nuw %struct.NullTest, ptr %101, i32 0, i32 4
  store i32 -1, ptr %102, align 8
  %103 = load ptr, ptr %15, align 8
  %104 = getelementptr inbounds nuw %struct.Query, ptr %103, i32 0, i32 21
  %105 = load ptr, ptr %104, align 8
  %106 = getelementptr inbounds nuw %struct.FromExpr, ptr %105, i32 0, i32 2
  %107 = load ptr, ptr %106, align 8
  %108 = load ptr, ptr %18, align 8
  %109 = call zeroext i1 @list_member(ptr noundef %107, ptr noundef %108)
  br i1 %109, label %122, label %110

110:                                              ; preds = %6
  %111 = load ptr, ptr %18, align 8
  %112 = load ptr, ptr %15, align 8
  %113 = getelementptr inbounds nuw %struct.Query, ptr %112, i32 0, i32 21
  %114 = load ptr, ptr %113, align 8
  %115 = getelementptr inbounds nuw %struct.FromExpr, ptr %114, i32 0, i32 2
  %116 = load ptr, ptr %115, align 8
  %117 = call ptr @lcons(ptr noundef %111, ptr noundef %116)
  %118 = load ptr, ptr %15, align 8
  %119 = getelementptr inbounds nuw %struct.Query, ptr %118, i32 0, i32 21
  %120 = load ptr, ptr %119, align 8
  %121 = getelementptr inbounds nuw %struct.FromExpr, ptr %120, i32 0, i32 2
  store ptr %117, ptr %121, align 8
  br label %122

122:                                              ; preds = %110, %6
  %123 = call ptr @newNode(i64 noundef 20, i32 noundef 106)
  store ptr %123, ptr %19, align 8
  %124 = load ptr, ptr %16, align 8
  %125 = load ptr, ptr %14, align 8
  %126 = getelementptr inbounds nuw %struct.PlannerInfo, ptr %125, i32 0, i32 52
  %127 = load ptr, ptr %126, align 8
  %128 = call i32 @assignSortGroupRef(ptr noundef %124, ptr noundef %127)
  %129 = load ptr, ptr %19, align 8
  %130 = getelementptr inbounds nuw %struct.SortGroupClause, ptr %129, i32 0, i32 1
  store i32 %128, ptr %130, align 4
  %131 = load i32, ptr %10, align 4
  %132 = load ptr, ptr %19, align 8
  %133 = getelementptr inbounds nuw %struct.SortGroupClause, ptr %132, i32 0, i32 2
  store i32 %131, ptr %133, align 4
  %134 = load i32, ptr %11, align 4
  %135 = load ptr, ptr %19, align 8
  %136 = getelementptr inbounds nuw %struct.SortGroupClause, ptr %135, i32 0, i32 3
  store i32 %134, ptr %136, align 4
  %137 = load i8, ptr %12, align 1, !range !4, !noundef !5
  %138 = trunc i8 %137 to i1
  %139 = load ptr, ptr %19, align 8
  %140 = getelementptr inbounds nuw %struct.SortGroupClause, ptr %139, i32 0, i32 4
  %141 = zext i1 %138 to i8
  store i8 %141, ptr %140, align 4
  %142 = load i8, ptr %13, align 1, !range !4, !noundef !5
  %143 = trunc i8 %142 to i1
  %144 = load ptr, ptr %19, align 8
  %145 = getelementptr inbounds nuw %struct.SortGroupClause, ptr %144, i32 0, i32 5
  %146 = zext i1 %143 to i8
  store i8 %146, ptr %145, align 1
  %147 = load ptr, ptr %19, align 8
  %148 = getelementptr inbounds nuw %struct.SortGroupClause, ptr %147, i32 0, i32 6
  store i8 0, ptr %148, align 2
  %149 = load ptr, ptr %19, align 8
  store ptr %149, ptr %25, align 8
  %150 = getelementptr inbounds nuw %union.ListCell, ptr %25, i32 0, i32 0
  %151 = load ptr, ptr %150, align 8
  %152 = call ptr @list_make1_impl(i32 noundef 1, ptr %151)
  %153 = load ptr, ptr %15, align 8
  %154 = getelementptr inbounds nuw %struct.Query, ptr %153, i32 0, i32 37
  store ptr %152, ptr %154, align 8
  %155 = load ptr, ptr %15, align 8
  %156 = getelementptr inbounds nuw %struct.Query, ptr %155, i32 0, i32 38
  store ptr null, ptr %156, align 8
  %157 = call i64 @Int64GetDatum(i64 noundef 1)
  %158 = call ptr @makeConst(i32 noundef 20, i32 noundef -1, i32 noundef 0, i32 noundef 8, i64 noundef %157, i1 noundef zeroext false, i1 noundef zeroext true)
  %159 = load ptr, ptr %15, align 8
  %160 = getelementptr inbounds nuw %struct.Query, ptr %159, i32 0, i32 39
  store ptr %158, ptr %160, align 8
  %161 = load ptr, ptr %14, align 8
  %162 = getelementptr inbounds nuw %struct.PlannerInfo, ptr %161, i32 0, i32 58
  store double 1.000000e+00, ptr %162, align 8
  %163 = load ptr, ptr %14, align 8
  %164 = getelementptr inbounds nuw %struct.PlannerInfo, ptr %163, i32 0, i32 59
  store double 1.000000e+00, ptr %164, align 8
  %165 = load ptr, ptr %14, align 8
  %166 = call ptr @query_planner(ptr noundef %165, ptr noundef @minmax_qp_callback, ptr noundef null)
  store ptr %166, ptr %20, align 8
  %167 = load ptr, ptr %14, align 8
  call void @SS_identify_outer_params(ptr noundef %167)
  %168 = load ptr, ptr %14, align 8
  %169 = load ptr, ptr %20, align 8
  call void @SS_charge_for_initplans(ptr noundef %168, ptr noundef %169)
  %170 = load ptr, ptr %20, align 8
  %171 = getelementptr inbounds nuw %struct.RelOptInfo, ptr %170, i32 0, i32 3
  %172 = load double, ptr %171, align 8
  %173 = fcmp ogt double %172, 1.000000e+00
  br i1 %173, label %174, label %179

174:                                              ; preds = %122
  %175 = load ptr, ptr %20, align 8
  %176 = getelementptr inbounds nuw %struct.RelOptInfo, ptr %175, i32 0, i32 3
  %177 = load double, ptr %176, align 8
  %178 = fdiv double 1.000000e+00, %177
  store double %178, ptr %23, align 8
  br label %180

179:                                              ; preds = %122
  store double 1.000000e+00, ptr %23, align 8
  br label %180

180:                                              ; preds = %179, %174
  %181 = load ptr, ptr %20, align 8
  %182 = getelementptr inbounds nuw %struct.RelOptInfo, ptr %181, i32 0, i32 8
  %183 = load ptr, ptr %182, align 8
  %184 = load ptr, ptr %14, align 8
  %185 = getelementptr inbounds nuw %struct.PlannerInfo, ptr %184, i32 0, i32 39
  %186 = load ptr, ptr %185, align 8
  %187 = load double, ptr %23, align 8
  %188 = call ptr @get_cheapest_fractional_path_for_pathkeys(ptr noundef %183, ptr noundef %186, ptr noundef null, double noundef %187)
  store ptr %188, ptr %21, align 8
  %189 = load ptr, ptr %21, align 8
  %190 = icmp ne ptr %189, null
  br i1 %190, label %192, label %191

191:                                              ; preds = %180
  store i1 false, ptr %7, align 1
  store i32 1, ptr %26, align 4
  br label %224

192:                                              ; preds = %180
  %193 = load ptr, ptr %14, align 8
  %194 = load ptr, ptr %20, align 8
  %195 = load ptr, ptr %21, align 8
  %196 = load ptr, ptr %14, align 8
  %197 = load ptr, ptr %14, align 8
  %198 = getelementptr inbounds nuw %struct.PlannerInfo, ptr %197, i32 0, i32 52
  %199 = load ptr, ptr %198, align 8
  %200 = call ptr @make_pathtarget_from_tlist(ptr noundef %199)
  %201 = call ptr @set_pathtarget_cost_width(ptr noundef %196, ptr noundef %200)
  %202 = call ptr @apply_projection_to_path(ptr noundef %193, ptr noundef %194, ptr noundef %195, ptr noundef %201)
  store ptr %202, ptr %21, align 8
  %203 = load ptr, ptr %21, align 8
  %204 = getelementptr inbounds nuw %struct.Path, ptr %203, i32 0, i32 10
  %205 = load double, ptr %204, align 8
  %206 = load double, ptr %23, align 8
  %207 = load ptr, ptr %21, align 8
  %208 = getelementptr inbounds nuw %struct.Path, ptr %207, i32 0, i32 11
  %209 = load double, ptr %208, align 8
  %210 = load ptr, ptr %21, align 8
  %211 = getelementptr inbounds nuw %struct.Path, ptr %210, i32 0, i32 10
  %212 = load double, ptr %211, align 8
  %213 = fsub double %209, %212
  %214 = call double @llvm.fmuladd.f64(double %206, double %213, double %205)
  store double %214, ptr %22, align 8
  %215 = load ptr, ptr %14, align 8
  %216 = load ptr, ptr %9, align 8
  %217 = getelementptr inbounds nuw %struct.MinMaxAggInfo, ptr %216, i32 0, i32 4
  store ptr %215, ptr %217, align 8
  %218 = load ptr, ptr %21, align 8
  %219 = load ptr, ptr %9, align 8
  %220 = getelementptr inbounds nuw %struct.MinMaxAggInfo, ptr %219, i32 0, i32 5
  store ptr %218, ptr %220, align 8
  %221 = load double, ptr %22, align 8
  %222 = load ptr, ptr %9, align 8
  %223 = getelementptr inbounds nuw %struct.MinMaxAggInfo, ptr %222, i32 0, i32 6
  store double %221, ptr %223, align 8
  store i1 true, ptr %7, align 1
  store i32 1, ptr %26, align 4
  br label %224

224:                                              ; preds = %192, %191
  call void @llvm.lifetime.end.p0(i64 8, ptr %23) #8
  call void @llvm.lifetime.end.p0(i64 8, ptr %22) #8
  call void @llvm.lifetime.end.p0(i64 8, ptr %21) #8
  call void @llvm.lifetime.end.p0(i64 8, ptr %20) #8
  call void @llvm.lifetime.end.p0(i64 8, ptr %19) #8
  call void @llvm.lifetime.end.p0(i64 8, ptr %18) #8
  call void @llvm.lifetime.end.p0(i64 8, ptr %17) #8
  call void @llvm.lifetime.end.p0(i64 8, ptr %16) #8
  call void @llvm.lifetime.end.p0(i64 8, ptr %15) #8
  call void @llvm.lifetime.end.p0(i64 8, ptr %14) #8
  %225 = load i1, ptr %7, align 1
  ret i1 %225
}