; Function Attrs: nounwind uwtable
define internal fastcc noundef zeroext i1 @build_minmax_path(ptr noundef %0, ptr noundef captures(none) %1, i32 noundef range(i32 1, 0) %2, i32 noundef %3, i1 noundef zeroext %4, i1 noundef zeroext %5) unnamed_addr #0 {
  %7 = zext i1 %4 to i8
  %8 = zext i1 %5 to i8
  %9 = tail call ptr @palloc(i64 noundef 704) #8
  tail call void @llvm.memcpy.p0.p0.i64(ptr noundef nonnull align 8 dereferenceable(704) %9, ptr noundef nonnull align 8 dereferenceable(704) %0, i64 704, i1 false)
  %10 = getelementptr inbounds nuw i8, ptr %9, i64 24
  %11 = load i32, ptr %10, align 8
  %12 = add i32 %11, 1
  store i32 %12, ptr %10, align 8
  %13 = getelementptr inbounds nuw i8, ptr %9, i64 32
  store ptr %0, ptr %13, align 8
  %14 = getelementptr inbounds nuw i8, ptr %9, i64 40
  %15 = getelementptr inbounds nuw i8, ptr %9, i64 144
  store ptr null, ptr %15, align 8
  %16 = getelementptr inbounds nuw i8, ptr %9, i64 608
  %17 = getelementptr inbounds nuw i8, ptr %0, i64 8
  tail call void @llvm.memset.p0.i64(ptr noundef nonnull align 8 dereferenceable(16) %14, i8 0, i64 16, i1 false)
  tail call void @llvm.memset.p0.i64(ptr noundef nonnull align 8 dereferenceable(16) %16, i8 0, i64 16, i1 false)
  %18 = load ptr, ptr %17, align 8
  %19 = tail call ptr @copyObjectImpl(ptr noundef %18) #8
  %20 = getelementptr inbounds nuw i8, ptr %9, i64 8
  store ptr %19, ptr %20, align 8
  tail call void @IncrementVarSublevelsUp(ptr noundef %19, i32 noundef 1, i32 noundef 1) #8
  %21 = getelementptr inbounds nuw i8, ptr %0, i64 256
  %22 = load ptr, ptr %21, align 8
  %23 = tail call ptr @copyObjectImpl(ptr noundef %22) #8
  %24 = getelementptr inbounds nuw i8, ptr %9, i64 256
  store ptr %23, ptr %24, align 8
  tail call void @IncrementVarSublevelsUp(ptr noundef %23, i32 noundef 1, i32 noundef 1) #8
  %25 = getelementptr inbounds nuw i8, ptr %1, i64 16
  %26 = load ptr, ptr %25, align 8
  %27 = tail call ptr @copyObjectImpl(ptr noundef %26) #8
  %28 = tail call ptr @pstrdup(ptr noundef nonnull @.str.2) #8
  %29 = tail call ptr @makeTargetEntry(ptr noundef %27, i16 noundef signext 1, ptr noundef %28, i1 noundef zeroext false) #8
  %30 = tail call ptr @list_make1_impl(i32 noundef 1, ptr %29) #8
  %31 = getelementptr inbounds nuw i8, ptr %19, i64 112
  store ptr %30, ptr %31, align 8
  %32 = getelementptr inbounds nuw i8, ptr %9, i64 528
  store ptr %30, ptr %32, align 8
  %33 = getelementptr inbounds nuw i8, ptr %19, i64 184
  store ptr null, ptr %33, align 8
  %34 = getelementptr inbounds nuw i8, ptr %9, i64 598
  store i8 0, ptr %34, align 2
  %35 = getelementptr inbounds nuw i8, ptr %19, i64 200
  store ptr null, ptr %35, align 8
  %36 = getelementptr inbounds nuw i8, ptr %19, i64 48
  store i8 0, ptr %36, align 8
  %37 = getelementptr inbounds nuw i8, ptr %19, i64 44
  store i8 0, ptr %37, align 4
  %38 = tail call noundef ptr @palloc0(i64 noundef 32) #8
  store i32 52, ptr %38, align 4
  %39 = getelementptr inbounds nuw i8, ptr %38, i64 16
  store i32 1, ptr %39, align 8
  %40 = load ptr, ptr %25, align 8
  %41 = tail call ptr @copyObjectImpl(ptr noundef %40) #8
  %42 = getelementptr inbounds nuw i8, ptr %38, i64 8
  store ptr %41, ptr %42, align 8
  %43 = getelementptr inbounds nuw i8, ptr %38, i64 20
  store i8 0, ptr %43, align 4
  %44 = getelementptr inbounds nuw i8, ptr %38, i64 24
  store i32 -1, ptr %44, align 8
  %45 = getelementptr inbounds nuw i8, ptr %19, i64 80
  %46 = load ptr, ptr %45, align 8
  %47 = getelementptr inbounds nuw i8, ptr %46, i64 16
  %48 = load ptr, ptr %47, align 8
  %49 = tail call zeroext i1 @list_member(ptr noundef %48, ptr noundef nonnull %38) #8
  br i1 %49, label %57, label %50

50:                                               ; preds = %6
  %51 = load ptr, ptr %45, align 8
  %52 = getelementptr inbounds nuw i8, ptr %51, i64 16
  %53 = load ptr, ptr %52, align 8
  %54 = tail call ptr @lcons(ptr noundef nonnull %38, ptr noundef %53) #8
  %55 = load ptr, ptr %45, align 8
  %56 = getelementptr inbounds nuw i8, ptr %55, i64 16
  store ptr %54, ptr %56, align 8
  br label %57

57:                                               ; preds = %50, %6
  %58 = tail call noundef ptr @palloc0(i64 noundef 20) #8
  store i32 106, ptr %58, align 4
  %59 = load ptr, ptr %32, align 8
  %60 = tail call i32 @assignSortGroupRef(ptr noundef %29, ptr noundef %59) #8
  %61 = getelementptr inbounds nuw i8, ptr %58, i64 4
  store i32 %60, ptr %61, align 4
  %62 = getelementptr inbounds nuw i8, ptr %58, i64 8
  store i32 %2, ptr %62, align 4
  %63 = getelementptr inbounds nuw i8, ptr %58, i64 12
  store i32 %3, ptr %63, align 4
  %64 = getelementptr inbounds nuw i8, ptr %58, i64 16
  store i8 %7, ptr %64, align 4
  %65 = getelementptr inbounds nuw i8, ptr %58, i64 17
  store i8 %8, ptr %65, align 1
  %66 = getelementptr inbounds nuw i8, ptr %58, i64 18
  store i8 0, ptr %66, align 2
  %67 = tail call ptr @list_make1_impl(i32 noundef 1, ptr nonnull %58) #8
  %68 = getelementptr inbounds nuw i8, ptr %19, i64 208
  store ptr %67, ptr %68, align 8
  %69 = getelementptr inbounds nuw i8, ptr %19, i64 216
  store ptr null, ptr %69, align 8
  %70 = tail call ptr @makeConst(i32 noundef 20, i32 noundef -1, i32 noundef 0, i32 noundef 8, i64 noundef 1, i1 noundef zeroext false, i1 noundef zeroext true) #8
  %71 = getelementptr inbounds nuw i8, ptr %19, i64 224
  store ptr %70, ptr %71, align 8
  %72 = getelementptr inbounds nuw i8, ptr %9, i64 576
  store double 1.000000e+00, ptr %72, align 8
  %73 = getelementptr inbounds nuw i8, ptr %9, i64 584
  store double 1.000000e+00, ptr %73, align 8
  %74 = tail call ptr @query_planner(ptr noundef nonnull %9, ptr noundef nonnull @minmax_qp_callback, ptr noundef null) #8
  tail call void @SS_identify_outer_params(ptr noundef nonnull %9) #8
  tail call void @SS_charge_for_initplans(ptr noundef nonnull %9, ptr noundef %74) #8
  %75 = getelementptr inbounds nuw i8, ptr %74, i64 16
  %76 = load double, ptr %75, align 8
  %77 = fcmp ogt double %76, 1.000000e+00
  %78 = fdiv double 1.000000e+00, %76
  %.080 = select i1 %77, double %78, double 1.000000e+00
  %79 = getelementptr inbounds nuw i8, ptr %74, i64 40
  %80 = load ptr, ptr %79, align 8
  %81 = getelementptr inbounds nuw i8, ptr %9, i64 312
  %82 = load ptr, ptr %81, align 8
  %83 = tail call ptr @get_cheapest_fractional_path_for_pathkeys(ptr noundef %80, ptr noundef %82, ptr noundef null, double noundef %.080) #8
  %.not = icmp ne ptr %83, null
  br i1 %.not, label %84, label %98

84:                                               ; preds = %57
  %85 = load ptr, ptr %32, align 8
  %86 = tail call ptr @make_pathtarget_from_tlist(ptr noundef %85) #8
  %87 = tail call ptr @set_pathtarget_cost_width(ptr noundef nonnull %9, ptr noundef %86) #8
  %88 = tail call ptr @apply_projection_to_path(ptr noundef nonnull %9, ptr noundef nonnull %74, ptr noundef nonnull %83, ptr noundef %87) #8
  %89 = getelementptr inbounds nuw i8, ptr %88, i64 56
  %90 = load double, ptr %89, align 8
  %91 = getelementptr inbounds nuw i8, ptr %88, i64 64
  %92 = load double, ptr %91, align 8
  %93 = fsub double %92, %90
  %94 = tail call double @llvm.fmuladd.f64(double %.080, double %93, double %90)
  %95 = getelementptr inbounds nuw i8, ptr %1, i64 24
  store ptr %9, ptr %95, align 8
  %96 = getelementptr inbounds nuw i8, ptr %1, i64 32
  store ptr %88, ptr %96, align 8
  %97 = getelementptr inbounds nuw i8, ptr %1, i64 40
  store double %94, ptr %97, align 8
  br label %98

98:                                               ; preds = %57, %84
  ret i1 %.not
}